target datalayout = "e-m:e-p270:32:32-p271:32:32-p272:64:64-i64:64-i128:128-f80:128-n8:16:32:64-S128"
target triple = "x86_64-unknown-linux-gnu"

; Function Attrs: mustprogress uwtable
define noundef i32 @_ZNK6icu_7513OlsonTimeZone12getRawOffsetEv(ptr noundef nonnull align 8 dereferenceable(224) %this) unnamed_addr #1 align 2 {
entry:
  %this.addr = alloca ptr, align 8
  %ec = alloca i32, align 4
  %raw = alloca i32, align 4
  %dst = alloca i32, align 4
  store ptr %this, ptr %this.addr, align 8
  %this1 = load ptr, ptr %this.addr, align 8
  store i32 0, ptr %ec, align 4
  %call = call double @uprv_getUTCtime_75()
  %vtable = load ptr, ptr %this1, align 8
  %vfn = getelementptr inbounds ptr, ptr %vtable, i64 6
  %0 = load ptr, ptr %vfn, align 8
  call void %0(ptr noundef nonnull align 8 dereferenceable(224) %this1, double noundef %call, i8 noundef signext 0, ptr noundef nonnull align 4 dereferenceable(4) %raw, ptr noundef nonnull align 4 dereferenceable(4) %dst, ptr noundef nonnull align 4 dereferenceable(4) %ec)
  %1 = load i32, ptr %raw, align 4
  ret i32 %1
}