; Function Attrs: mustprogress uwtable
define noundef i32 @_ZNK6icu_7513OlsonTimeZone12getRawOffsetEv(ptr noundef nonnull align 8 dereferenceable(224) %this) unnamed_addr #2 align 2 {
entry:
  %ec = alloca i32, align 4
  %raw = alloca i32, align 4
  %dst = alloca i32, align 4
  store i32 0, ptr %ec, align 4
  %call = tail call double @uprv_getUTCtime_75()
  %vtable = load ptr, ptr %this, align 8
  %vfn = getelementptr inbounds i8, ptr %vtable, i64 48
  %0 = load ptr, ptr %vfn, align 8
  call void %0(ptr noundef nonnull align 8 dereferenceable(224) %this, double noundef %call, i8 noundef signext 0, ptr noundef nonnull align 4 dereferenceable(4) %raw, ptr noundef nonnull align 4 dereferenceable(4) %dst, ptr noundef nonnull align 4 dereferenceable(4) %ec)
  %1 = load i32, ptr %raw, align 4
  ret i32 %1
}